target datalayout = "e-m:e-p270:32:32-p271:32:32-p272:64:64-i64:64-i128:128-f80:128-n8:16:32:64-S128"
target triple = "x86_64-pc-linux-gnu"

%struct.AVProbeData = type { ptr, ptr, i32, ptr }
%struct.AVFormatContext = type { ptr, ptr, ptr, ptr, ptr, i32, i32, ptr, i32, ptr, i32, ptr, ptr, i64, i64, i64, i32, i32, i32, i64, i64, ptr, i32, i32, ptr, i32, i32, i32, i32, ptr, i64, i32, i32, %struct.AVIOInterruptCB, i32, i32, i32, i32, i64, i32, i32, i32, i32, i32, i32, i32, i32, i32, i32, i32, i32, i64, i32, i32, i32, i32, i32, ptr, ptr, ptr, ptr, i32, ptr, ptr, ptr, ptr, i32, ptr, ptr, i64, ptr, ptr, ptr, i64 }
%struct.AVIOInterruptCB = type { ptr, ptr }
%struct.AVStream = type { ptr, i32, i32, ptr, ptr, %struct.AVRational, i64, i64, i64, i32, i32, %struct.AVRational, ptr, %struct.AVRational, %struct.AVPacket, i32, %struct.AVRational, i32 }
%struct.AVPacket = type { ptr, i64, i64, ptr, i32, i32, i32, ptr, i32, i64, i64, ptr, ptr, %struct.AVRational }
%struct.AVRational = type { i32, i32 }
%struct.AVCodecParameters = type { i32, i32, i32, ptr, i32, ptr, i32, i32, i64, i32, i32, i32, i32, i32, i32, %struct.AVRational, %struct.AVRational, i32, i32, i32, i32, i32, i32, i32, %struct.AVChannelLayout, i32, i32, i32, i32, i32, i32 }
%struct.AVChannelLayout = type { i32, i32, %union.anon, ptr }
%union.anon = type { i64 }
%struct.VqfContext = type { i32, i8, i32 }
%struct.FFStream = type { %struct.AVStream, ptr, i32, ptr, i32, ptr, i32, %struct.anon, i32, i32, %struct.FFFrac, ptr, ptr, i32, i32, i64, i64, i32, i32, i32, i64, i64, i64, i32, i64, i64, i64, i32, i32, [17 x i64], [17 x i8], [17 x i64], i64, i8, i8, %struct.AVRational, %struct.AVProbeData, ptr, i64, i32, i32, i32, ptr, i32, i32, i64, i64, ptr, %struct.AVRational }
%struct.anon = type { ptr, i32 }
%struct.FFFrac = type { i64, i64, i64 }
%struct.FFFormatContext = type { %struct.AVFormatContext, i32, %struct.PacketList, i64, ptr, ptr, i32, ptr, i32 }
%struct.PacketList = type { ptr, ptr }

; Function Attrs: alwaysinline nounwind uwtable
define internal ptr @ffformatcontext(ptr noundef %0) #7 {
  %2 = alloca ptr, align 8
  store ptr %0, ptr %2, align 8, !tbaa !14
  %3 = load ptr, ptr %2, align 8, !tbaa !14
  ret ptr %3
}

; Function Attrs: alwaysinline nounwind uwtable
define internal ptr @ffstream(ptr noundef %0) #7 {
  %2 = alloca ptr, align 8
  store ptr %0, ptr %2, align 8, !tbaa !33
  %3 = load ptr, ptr %2, align 8, !tbaa !33
  ret ptr %3
}

; Function Attrs: nounwind uwtable
define internal i32 @vqf_read_seek(ptr noundef %0, i32 noundef %1, i64 noundef %2, i32 noundef %3) #0 {
  %5 = alloca i32, align 4
  %6 = alloca ptr, align 8
  %7 = alloca i32, align 4
  %8 = alloca i64, align 8
  %9 = alloca i32, align 4
  %10 = alloca ptr, align 8
  %11 = alloca ptr, align 8
  %12 = alloca i64, align 8
  %13 = alloca i64, align 8
  %14 = alloca i32, align 4
  store ptr %0, ptr %6, align 8, !tbaa !14
  store i32 %1, ptr %7, align 4, !tbaa !35
  store i64 %2, ptr %8, align 8, !tbaa !65
  store i32 %3, ptr %9, align 4, !tbaa !35
  call void @llvm.lifetime.start.p0(i64 8, ptr %10) #10
  %15 = load ptr, ptr %6, align 8, !tbaa !14
  %16 = getelementptr inbounds nuw %struct.AVFormatContext, ptr %15, i32 0, i32 3
  %17 = load ptr, ptr %16, align 8, !tbaa !16
  store ptr %17, ptr %10, align 8, !tbaa !31
  call void @llvm.lifetime.start.p0(i64 8, ptr %11) #10
  call void @llvm.lifetime.start.p0(i64 8, ptr %12) #10
  call void @llvm.lifetime.start.p0(i64 8, ptr %13) #10
  %18 = load ptr, ptr %6, align 8, !tbaa !14
  %19 = getelementptr inbounds nuw %struct.AVFormatContext, ptr %18, i32 0, i32 7
  %20 = load ptr, ptr %19, align 8, !tbaa !66
  %21 = load i32, ptr %7, align 4, !tbaa !35
  %22 = sext i32 %21 to i64
  %23 = getelementptr inbounds ptr, ptr %20, i64 %22
  %24 = load ptr, ptr %23, align 8, !tbaa !33
  store ptr %24, ptr %11, align 8, !tbaa !33
  %25 = load i64, ptr %8, align 8, !tbaa !65
  %26 = load ptr, ptr %11, align 8, !tbaa !33
  %27 = getelementptr inbounds nuw %struct.AVStream, ptr %26, i32 0, i32 3
  %28 = load ptr, ptr %27, align 8, !tbaa !37
  %29 = getelementptr inbounds nuw %struct.AVCodecParameters, ptr %28, i32 0, i32 8
  %30 = load i64, ptr %29, align 8, !tbaa !50
  %31 = mul nsw i64 %25, %30
  %32 = load ptr, ptr %11, align 8, !tbaa !33
  %33 = getelementptr inbounds nuw %struct.AVStream, ptr %32, i32 0, i32 5
  %34 = getelementptr inbounds nuw %struct.AVRational, ptr %33, i32 0, i32 0
  %35 = load i32, ptr %34, align 8, !tbaa !67
  %36 = sext i32 %35 to i64
  %37 = load ptr, ptr %11, align 8, !tbaa !33
  %38 = getelementptr inbounds nuw %struct.AVStream, ptr %37, i32 0, i32 5
  %39 = getelementptr inbounds nuw %struct.AVRational, ptr %38, i32 0, i32 1
  %40 = load i32, ptr %39, align 4, !tbaa !68
  %41 = sext i32 %40 to i64
  %42 = load ptr, ptr %10, align 8, !tbaa !31
  %43 = getelementptr inbounds nuw %struct.VqfContext, ptr %42, i32 0, i32 0
  %44 = load i32, ptr %43, align 4, !tbaa !54
  %45 = sext i32 %44 to i64
  %46 = mul nsw i64 %41, %45
  %47 = load i32, ptr %9, align 4, !tbaa !35
  %48 = and i32 %47, 1
  %49 = icmp ne i32 %48, 0
  %50 = select i1 %49, i32 2, i32 3
  %51 = call i64 @av_rescale_rnd(i64 noundef %31, i64 noundef %36, i64 noundef %46, i32 noundef %50) #11
  store i64 %51, ptr %13, align 8, !tbaa !65
  %52 = load ptr, ptr %10, align 8, !tbaa !31
  %53 = getelementptr inbounds nuw %struct.VqfContext, ptr %52, i32 0, i32 0
  %54 = load i32, ptr %53, align 4, !tbaa !54
  %55 = sext i32 %54 to i64
  %56 = load i64, ptr %13, align 8, !tbaa !65
  %57 = mul nsw i64 %56, %55
  store i64 %57, ptr %13, align 8, !tbaa !65
  %58 = load i64, ptr %13, align 8, !tbaa !65
  %59 = load ptr, ptr %11, align 8, !tbaa !33
  %60 = getelementptr inbounds nuw %struct.AVStream, ptr %59, i32 0, i32 5
  %61 = getelementptr inbounds nuw %struct.AVRational, ptr %60, i32 0, i32 1
  %62 = load i32, ptr %61, align 4, !tbaa !68
  %63 = sext i32 %62 to i64
  %64 = load ptr, ptr %11, align 8, !tbaa !33
  %65 = getelementptr inbounds nuw %struct.AVStream, ptr %64, i32 0, i32 3
  %66 = load ptr, ptr %65, align 8, !tbaa !37
  %67 = getelementptr inbounds nuw %struct.AVCodecParameters, ptr %66, i32 0, i32 8
  %68 = load i64, ptr %67, align 8, !tbaa !50
  %69 = load ptr, ptr %11, align 8, !tbaa !33
  %70 = getelementptr inbounds nuw %struct.AVStream, ptr %69, i32 0, i32 5
  %71 = getelementptr inbounds nuw %struct.AVRational, ptr %70, i32 0, i32 0
  %72 = load i32, ptr %71, align 8, !tbaa !67
  %73 = sext i32 %72 to i64
  %74 = mul nsw i64 %68, %73
  %75 = call i64 @av_rescale(i64 noundef %58, i64 noundef %63, i64 noundef %74) #11
  %76 = load ptr, ptr %11, align 8, !tbaa !33
  %77 = call ptr @ffstream(ptr noundef %76)
  %78 = getelementptr inbounds nuw %struct.FFStream, ptr %77, i32 0, i32 46
  store i64 %75, ptr %78, align 8, !tbaa !69
  %79 = load ptr, ptr %6, align 8, !tbaa !14
  %80 = getelementptr inbounds nuw %struct.AVFormatContext, ptr %79, i32 0, i32 4
  %81 = load ptr, ptr %80, align 8, !tbaa !36
  %82 = load i64, ptr %13, align 8, !tbaa !65
  %83 = sub nsw i64 %82, 7
  %84 = ashr i64 %83, 3
  %85 = load ptr, ptr %6, align 8, !tbaa !14
  %86 = call ptr @ffformatcontext(ptr noundef %85)
  %87 = getelementptr inbounds nuw %struct.FFFormatContext, ptr %86, i32 0, i32 3
  %88 = load i64, ptr %87, align 8, !tbaa !80
  %89 = add nsw i64 %84, %88
  %90 = call i64 @avio_seek(ptr noundef %81, i64 noundef %89, i32 noundef 0)
  store i64 %90, ptr %12, align 8, !tbaa !65
  %91 = icmp slt i64 %90, 0
  br i1 %91, label %92, label %95

92:                                               ; preds = %4
  %93 = load i64, ptr %12, align 8, !tbaa !65
  %94 = trunc i64 %93 to i32
  store i32 %94, ptr %5, align 4
  store i32 1, ptr %14, align 4
  br label %103

95:                                               ; preds = %4
  %96 = load i64, ptr %13, align 8, !tbaa !65
  %97 = sub nsw i64 %96, 7
  %98 = and i64 %97, 7
  %99 = sub nsw i64 -7, %98
  %100 = trunc i64 %99 to i32
  %101 = load ptr, ptr %10, align 8, !tbaa !31
  %102 = getelementptr inbounds nuw %struct.VqfContext, ptr %101, i32 0, i32 2
  store i32 %100, ptr %102, align 4, !tbaa !59
  store i32 0, ptr %5, align 4
  store i32 1, ptr %14, align 4
  br label %103

103:                                              ; preds = %95, %92
  call void @llvm.lifetime.end.p0(i64 8, ptr %13) #10
  call void @llvm.lifetime.end.p0(i64 8, ptr %12) #10
  call void @llvm.lifetime.end.p0(i64 8, ptr %11) #10
  call void @llvm.lifetime.end.p0(i64 8, ptr %10) #10
  %104 = load i32, ptr %5, align 4
  ret i32 %104
}