; Function Attrs: nounwind uwtable
define internal i32 @vqf_read_seek(ptr noundef readonly captures(none) %0, i32 noundef %1, i64 noundef %2, i32 noundef %3) #1 {
  %5 = getelementptr inbounds nuw i8, ptr %0, i64 24
  %6 = load ptr, ptr %5, align 8, !tbaa !12
  %7 = getelementptr inbounds nuw i8, ptr %0, i64 48
  %8 = load ptr, ptr %7, align 8, !tbaa !54
  %9 = sext i32 %1 to i64
  %10 = getelementptr inbounds ptr, ptr %8, i64 %9
  %11 = load ptr, ptr %10, align 8, !tbaa !55
  %12 = getelementptr inbounds nuw i8, ptr %11, i64 16
  %13 = load ptr, ptr %12, align 8, !tbaa !28
  %14 = getelementptr inbounds nuw i8, ptr %13, i64 48
  %15 = load i64, ptr %14, align 8, !tbaa !41
  %16 = mul nsw i64 %15, %2
  %17 = getelementptr inbounds nuw i8, ptr %11, i64 32
  %18 = load i32, ptr %17, align 8, !tbaa !57
  %19 = sext i32 %18 to i64
  %20 = getelementptr inbounds nuw i8, ptr %11, i64 36
  %21 = load i32, ptr %20, align 4, !tbaa !58
  %22 = sext i32 %21 to i64
  %23 = load i32, ptr %6, align 4, !tbaa !45
  %24 = sext i32 %23 to i64
  %25 = mul nsw i64 %24, %22
  %26 = and i32 %3, 1
  %27 = xor i32 %26, 3
  %28 = tail call i64 @av_rescale_rnd(i64 noundef %16, i64 noundef %19, i64 noundef %25, i32 noundef %27) #9
  %29 = mul nsw i64 %28, %24
  %30 = mul nsw i64 %15, %19
  %31 = tail call i64 @av_rescale(i64 noundef %29, i64 noundef %22, i64 noundef %30) #9
  %32 = getelementptr inbounds nuw i8, ptr %11, i64 840
  store i64 %31, ptr %32, align 8, !tbaa !59
  %33 = getelementptr inbounds nuw i8, ptr %0, i64 32
  %34 = load ptr, ptr %33, align 8, !tbaa !27
  %35 = add nsw i64 %29, -7
  %36 = ashr i64 %35, 3
  %37 = getelementptr inbounds nuw i8, ptr %0, i64 496
  %38 = load i64, ptr %37, align 8, !tbaa !71
  %39 = add nsw i64 %38, %36
  %40 = tail call i64 @avio_seek(ptr noundef %34, i64 noundef %39, i32 noundef 0) #8
  %41 = icmp slt i64 %40, 0
  br i1 %41, label %42, label %44

42:                                               ; preds = %4
  %43 = trunc i64 %40 to i32
  br label %49

44:                                               ; preds = %4
  %45 = trunc i64 %35 to i32
  %46 = and i32 %45, 7
  %47 = sub nuw nsw i32 -7, %46
  %48 = getelementptr inbounds nuw i8, ptr %6, i64 8
  store i32 %47, ptr %48, align 4, !tbaa !48
  br label %49

49:                                               ; preds = %44, %42
  %.0 = phi i32 [ %43, %42 ], [ 0, %44 ]
  ret i32 %.0
}